; Function Attrs: mustprogress uwtable
define dso_local void @_ZN10cmCTestCVSC2EP7cmCTestRSo(ptr noundef nonnull align 8 dereferenceable(440) %0, ptr noundef %1, ptr noundef nonnull align 8 dereferenceable(8) %2) unnamed_addr #3 align 2 personality ptr @__gxx_personality_v0 {
  tail call void @_ZN9cmCTestVCC2EP7cmCTestRSo(ptr noundef nonnull align 8 dereferenceable(388) %0, ptr noundef %1, ptr noundef nonnull align 8 dereferenceable(8) %2)
  store ptr getelementptr inbounds ({ [10 x ptr] }, ptr @_ZTV10cmCTestCVS, i64 0, i32 0, i64 2), ptr %0, align 8
  %4 = getelementptr inbounds i8, ptr %0, i64 400
  store i32 0, ptr %4, align 8
  %5 = getelementptr inbounds i8, ptr %0, i64 408
  store ptr null, ptr %5, align 8
  %6 = getelementptr inbounds i8, ptr %0, i64 416
  store ptr %4, ptr %6, align 8
  %7 = getelementptr inbounds i8, ptr %0, i64 424
  store ptr %4, ptr %7, align 8
  %8 = getelementptr inbounds i8, ptr %0, i64 432
  store i64 0, ptr %8, align 8
  ret void
}